ccopy_reg
_reconstructor
p0
(c__main__
TransferStruct
p1
c__builtin__
object
p2
Ntp3
Rp4
(dp5
S'y'
p6
g0
(c__main__
AddMe
p7
g2
Ntp8
Rp9
(dp10
S'val'
p11
I84
sbsS'x'
p12
g0
(g7
g2
Ntp13
Rp14
(dp15
g11
I42
sbsb.